; ModuleID = '23/869.c'
source_filename = "23/869.c"
target datalayout = "e-m:e-p270:32:32-p271:32:32-p272:64:64-i64:64-f80:128-n8:16:32:64-S128"
target triple = "x86_64-pc-linux-gnu"

@.str = private unnamed_addr constant [3 x i8] c"%c\00", align 1
@.str.1 = private unnamed_addr constant [2 x i8] c" \00", align 1

; Function Attrs: noinline nounwind uwtable
define dso_local void @main() #0 {
  %1 = alloca [10000 x i8], align 16
  %2 = alloca [1000 x [1000 x i8]], align 16
  %3 = alloca [1000 x i32], align 16
  %4 = alloca i32, align 4
  %5 = alloca i32, align 4
  %6 = alloca i32, align 4
  %7 = alloca i32, align 4
  %8 = alloca i32, align 4
  %9 = alloca i32, align 4
  store i32 1, i32* %5, align 4
  store i32 0, i32* %6, align 4
  store i32 0, i32* %7, align 4
  %10 = getelementptr inbounds [10000 x i8], [10000 x i8]* %1, i64 0, i64 0
  %11 = call i32 (i8*, ...) bitcast (i32 (...)* @gets to i32 (i8*, ...)*)(i8* %10)
  store i32 0, i32* %6, align 4
  br label %12

12:                                               ; preds = %29, %0
  %13 = load i32, i32* %6, align 4
  %14 = sext i32 %13 to i64
  %15 = getelementptr inbounds [10000 x i8], [10000 x i8]* %1, i64 0, i64 0
  %16 = call i64 @strlen(i8* %15) #3
  %17 = icmp ult i64 %14, %16
  br i1 %17, label %18, label %32

18:                                               ; preds = %12
  %19 = load i32, i32* %6, align 4
  %20 = sext i32 %19 to i64
  %21 = getelementptr inbounds [10000 x i8], [10000 x i8]* %1, i64 0, i64 %20
  %22 = load i8, i8* %21, align 1
  %23 = sext i8 %22 to i32
  %24 = icmp eq i32 %23, 32
  br i1 %24, label %25, label %28

25:                                               ; preds = %18
  %26 = load i32, i32* %5, align 4
  %27 = add nsw i32 %26, 1
  store i32 %27, i32* %5, align 4
  br label %28

28:                                               ; preds = %25, %18
  br label %29

29:                                               ; preds = %28
  %30 = load i32, i32* %6, align 4
  %31 = add nsw i32 %30, 1
  store i32 %31, i32* %6, align 4
  br label %12

32:                                               ; preds = %12
  store i32 0, i32* %6, align 4
  store i32 0, i32* %4, align 4
  br label %33

33:                                               ; preds = %83, %32
  %34 = load i32, i32* %4, align 4
  %35 = load i32, i32* %5, align 4
  %36 = icmp slt i32 %34, %35
  br i1 %36, label %37, label %86

37:                                               ; preds = %33
  br label %38

38:                                               ; preds = %79, %37
  %39 = load i32, i32* %6, align 4
  %40 = sext i32 %39 to i64
  %41 = getelementptr inbounds [10000 x i8], [10000 x i8]* %1, i64 0, i64 0
  %42 = call i64 @strlen(i8* %41) #3
  %43 = icmp ult i64 %40, %42
  br i1 %43, label %44, label %82

44:                                               ; preds = %38
  %45 = load i32, i32* %6, align 4
  %46 = sext i32 %45 to i64
  %47 = getelementptr inbounds [10000 x i8], [10000 x i8]* %1, i64 0, i64 %46
  %48 = load i8, i8* %47, align 1
  %49 = sext i8 %48 to i32
  %50 = icmp ne i32 %49, 32
  br i1 %50, label %51, label %64

51:                                               ; preds = %44
  %52 = load i32, i32* %6, align 4
  %53 = sext i32 %52 to i64
  %54 = getelementptr inbounds [10000 x i8], [10000 x i8]* %1, i64 0, i64 %53
  %55 = load i8, i8* %54, align 1
  %56 = load i32, i32* %4, align 4
  %57 = sext i32 %56 to i64
  %58 = getelementptr inbounds [1000 x [1000 x i8]], [1000 x [1000 x i8]]* %2, i64 0, i64 %57
  %59 = load i32, i32* %7, align 4
  %60 = sext i32 %59 to i64
  %61 = getelementptr inbounds [1000 x i8], [1000 x i8]* %58, i64 0, i64 %60
  store i8 %55, i8* %61, align 1
  %62 = load i32, i32* %7, align 4
  %63 = add nsw i32 %62, 1
  store i32 %63, i32* %7, align 4
  br label %64

64:                                               ; preds = %51, %44
  %65 = load i32, i32* %7, align 4
  %66 = load i32, i32* %4, align 4
  %67 = sext i32 %66 to i64
  %68 = getelementptr inbounds [1000 x i32], [1000 x i32]* %3, i64 0, i64 %67
  store i32 %65, i32* %68, align 4
  %69 = load i32, i32* %6, align 4
  %70 = sext i32 %69 to i64
  %71 = getelementptr inbounds [10000 x i8], [10000 x i8]* %1, i64 0, i64 %70
  %72 = load i8, i8* %71, align 1
  %73 = sext i8 %72 to i32
  %74 = icmp eq i32 %73, 32
  br i1 %74, label %75, label %78

75:                                               ; preds = %64
  store i32 0, i32* %7, align 4
  %76 = load i32, i32* %6, align 4
  %77 = add nsw i32 %76, 1
  store i32 %77, i32* %6, align 4
  br label %82

78:                                               ; preds = %64
  br label %79

79:                                               ; preds = %78
  %80 = load i32, i32* %6, align 4
  %81 = add nsw i32 %80, 1
  store i32 %81, i32* %6, align 4
  br label %38

82:                                               ; preds = %75, %38
  br label %83

83:                                               ; preds = %82
  %84 = load i32, i32* %4, align 4
  %85 = add nsw i32 %84, 1
  store i32 %85, i32* %4, align 4
  br label %33

86:                                               ; preds = %33
  %87 = load i32, i32* %5, align 4
  %88 = sub nsw i32 %87, 1
  store i32 %88, i32* %4, align 4
  br label %89

89:                                               ; preds = %115, %86
  %90 = load i32, i32* %4, align 4
  %91 = icmp sgt i32 %90, 0
  br i1 %91, label %92, label %118

92:                                               ; preds = %89
  store i32 0, i32* %8, align 4
  br label %93

93:                                               ; preds = %110, %92
  %94 = load i32, i32* %8, align 4
  %95 = load i32, i32* %4, align 4
  %96 = sext i32 %95 to i64
  %97 = getelementptr inbounds [1000 x i32], [1000 x i32]* %3, i64 0, i64 %96
  %98 = load i32, i32* %97, align 4
  %99 = icmp slt i32 %94, %98
  br i1 %99, label %100, label %113

100:                                              ; preds = %93
  %101 = load i32, i32* %4, align 4
  %102 = sext i32 %101 to i64
  %103 = getelementptr inbounds [1000 x [1000 x i8]], [1000 x [1000 x i8]]* %2, i64 0, i64 %102
  %104 = load i32, i32* %8, align 4
  %105 = sext i32 %104 to i64
  %106 = getelementptr inbounds [1000 x i8], [1000 x i8]* %103, i64 0, i64 %105
  %107 = load i8, i8* %106, align 1
  %108 = sext i8 %107 to i32
  %109 = call i32 (i8*, ...) @printf(i8* getelementptr inbounds ([3 x i8], [3 x i8]* @.str, i64 0, i64 0), i32 %108)
  br label %110

110:                                              ; preds = %100
  %111 = load i32, i32* %8, align 4
  %112 = add nsw i32 %111, 1
  store i32 %112, i32* %8, align 4
  br label %93

113:                                              ; preds = %93
  %114 = call i32 (i8*, ...) @printf(i8* getelementptr inbounds ([2 x i8], [2 x i8]* @.str.1, i64 0, i64 0))
  br label %115

115:                                              ; preds = %113
  %116 = load i32, i32* %4, align 4
  %117 = add nsw i32 %116, -1
  store i32 %117, i32* %4, align 4
  br label %89

118:                                              ; preds = %89
  store i32 0, i32* %9, align 4
  br label %119

119:                                              ; preds = %132, %118
  %120 = load i32, i32* %9, align 4
  %121 = getelementptr inbounds [1000 x i32], [1000 x i32]* %3, i64 0, i64 0
  %122 = load i32, i32* %121, align 16
  %123 = icmp slt i32 %120, %122
  br i1 %123, label %124, label %135

124:                                              ; preds = %119
  %125 = getelementptr inbounds [1000 x [1000 x i8]], [1000 x [1000 x i8]]* %2, i64 0, i64 0
  %126 = load i32, i32* %9, align 4
  %127 = sext i32 %126 to i64
  %128 = getelementptr inbounds [1000 x i8], [1000 x i8]* %125, i64 0, i64 %127
  %129 = load i8, i8* %128, align 1
  %130 = sext i8 %129 to i32
  %131 = call i32 (i8*, ...) @printf(i8* getelementptr inbounds ([3 x i8], [3 x i8]* @.str, i64 0, i64 0), i32 %130)
  br label %132

132:                                              ; preds = %124
  %133 = load i32, i32* %9, align 4
  %134 = add nsw i32 %133, 1
  store i32 %134, i32* %9, align 4
  br label %119

135:                                              ; preds = %119
  ret void
}

declare dso_local i32 @gets(...) #1

; Function Attrs: nounwind readonly
declare dso_local i64 @strlen(i8*) #2

declare dso_local i32 @printf(i8*, ...) #1


!llvm.module.flags = !{!0}
!llvm.ident = !{!1}

!0 = !{i32 1, !"wchar_size", i32 4}
!1 = !{!"clang version 10.0.0-4ubuntu1 "}
